(dp0
I1
I32707
sI2
I4170
sI3
I1532
sI4
I913
sI5
I551
sI6
I415
sI7
I308
sI8
I230
sI9
I175
sI10
I172
sI11
I134
sI12
I105
sI13
I131
sI14
I83
sI15
I79
sI16
I80
sI17
I59
sI18
I56
sI19
I44
sI20
I55
sI21
I48
sI22
I43
sI23
I40
sI24
I39
sI25
I33
sI26
I15
sI27
I30
sI28
I27
sI29
I16
sI30
I22
sI31
I24
sI32
I15
sI33
I16
sI34
I12
sI35
I15
sI36
I16
sI37
I17
sI38
I15
sI39
I13
sI40
I13
sI41
I18
sI42
I8
sI43
I13
sI44
I6
sI45
I9
sI46
I15
sI47
I9
sI48
I12
sI49
I7
sI50
I11
sI51
I6
sI52
I8
sI53
I12
sI54
I9
sI55
I6
sI56
I7
sI57
I10
sI58
I8
sI59
I6
sI60
I5
sI61
I5
sI62
I10
sI63
I14
sI64
I5
sI65
I3
sI66
I4
sI67
I8
sI68
I4
sI69
I6
sI70
I3
sI71
I7
sI72
I3
sI73
I12
sI74
I5
sI75
I4
sI76
I1
sI77
I7
sI78
I4
sI79
I6
sI80
I1
sI81
I7
sI82
I2
sI83
I3
sI84
I6
sI85
I4
sI86
I6
sI87
I3
sI88
I4
sI89
I8
sI90
I1
sI91
I3
sI92
I2
sI93
I3
sI94
I2
sI95
I3
sI96
I1
sI97
I6
sI98
I2
sI99
I4
sI100
I1
sI101
I5
sI102
I1
sI103
I5
sI104
I3
sI105
I1
sI106
I3
sI107
I4
sI108
I1
sI109
I2
sI110
I4
sI111
I2
sI112
I2
sI113
I1
sI114
I2
sI115
I1
sI117
I7
sI118
I1
sI119
I2
sI120
I6
sI121
I3
sI122
I3
sI123
I3
sI124
I5
sI125
I2
sI126
I2
sI127
I3
sI128
I1
sI129
I2
sI130
I1
sI132
I3
sI133
I2
sI134
I1
sI135
I2
sI138
I2
sI139
I1
sI140
I4
sI142
I2
sI143
I1
sI145
I2
sI146
I1
sI147
I3
sI148
I4
sI149
I2
sI150
I2
sI151
I2
sI157
I1
sI159
I1
sI6304
I1
sI161
I2
sI163
I2
sI165
I1
sI166
I3
sI167
I1
sI168
I2
sI169
I1
sI170
I1
sI172
I1
sI173
I1
sI177
I2
sI178
I2
sI179
I3
sI182
I3
sI183
I1
sI184
I1
sI185
I2
sI186
I1
sI187
I1
sI188
I1
sI190
I1
sI192
I1
sI194
I2
sI195
I1
sI196
I3
sI197
I2
sI199
I1
sI201
I3
sI202
I1
sI203
I1
sI204
I1
sI205
I4
sI206
I2
sI209
I1
sI210
I1
sI211
I1
sI212
I1
sI213
I1
sI214
I1
sI217
I1
sI218
I1
sI219
I2
sI2053
I1
sI221
I2
sI223
I1
sI224
I2
sI225
I2
sI227
I2
sI228
I1
sI230
I1
sI232
I1
sI233
I4
sI234
I1
sI235
I1
sI236
I2
sI240
I1
sI241
I1
sI242
I2
sI243
I2
sI247
I1
sI254
I1
sI255
I1
sI258
I1
sI259
I1
sI260
I1
sI261
I2
sI266
I1
sI268
I1
sI271
I2
sI272
I2
sI273
I1
sI275
I2
sI281
I1
sI282
I1
sI284
I1
sI289
I1
sI294
I1
sI295
I1
sI296
I1
sI299
I1
sI307
I2
sI311
I1
sI314
I1
sI315
I1
sI318
I1
sI319
I1
sI320
I2
sI323
I1
sI335
I2
sI2385
I1
sI343
I1
sI344
I1
sI346
I1
sI350
I1
sI359
I1
sI360
I1
sI363
I1
sI364
I1
sI365
I1
sI366
I1
sI368
I1
sI376
I2
sI377
I1
sI382
I1
sI384
I1
sI390
I1
sI399
I1
sI402
I1
sI410
I1
sI420
I1
sI433
I1
sI443
I1
sI446
I1
sI450
I1
sI454
I1
sI458
I2
sI462
I1
sI465
I1
sI466
I1
sI469
I1
sI472
I1
sI475
I1
sI478
I1
sI480
I1
sI488
I1
sI494
I1
sI503
I1
sI505
I1
sI508
I1
sI516
I2
sI2567
I1
sI522
I1
sI535
I1
sI540
I1
sI546
I1
sI547
I1
sI550
I1
sI552
I1
sI557
I1
sI558
I1
sI564
I1
sI4193
I1
sI595
I1
sI597
I1
sI616
I1
sI635
I2
sI636
I1
sI639
I1
sI656
I1
sI659
I1
sI672
I1
sI683
I1
sI684
I1
sI2733
I1
sI688
I1
sI693
I1
sI714
I1
sI715
I1
sI724
I1
sI728
I1
sI738
I1
sI2173
I1
sI753
I1
sI770
I1
sI785
I1
sI818
I1
sI850
I1
sI851
I1
sI888
I1
sI919
I1
sI932
I1
sI2987
I1
sI950
I1
sI953
I1
sI160
I3
sI979
I1
sI7138
I1
sI997
I1
sI1000
I1
sI1003
I1
sI1006
I1
sI1013
I1
sI1015
I1
sI1039
I1
sI519
I2
sI3118
I1
sI1101
I1
sI5260
I1
sI11424
I1
sI3237
I1
sI1224
I1
sI1265
I1
sI1279
I1
sI1323
I1
sI1361
I1
sI1372
I1
sI1381
I1
sI1405
I1
sI1407
I1
sI1440
I1
sI1502
I1
sI5617
I1
sI1523
I1
sI1544
I1
sI1553
I1
sI1612
I1
sI1758
I1
sI1811
I1
sI4410
I1
sI5109
I1
sI337
I1
s.