c__builtin__
set
p0
((lp1
Vspaghettisauc
p2
aVranchdressingmix
p3
aVcondensedmilk
p4
aVcherrypiefil
p5
aVbroccolifloret
p6
aVhamburg
p7
aVmayonnais
p8
aVparmesan
p9
aVseasalt
p10
aVredonion
p11
aVmilk
p12
aVwholewheatpasta
p13
aVdriedcranberri
p14
aVpeanut
p15
aVwhitechocolatechip
p16
aVtomatopure
p17
aVcarawayse
p18
aVpancetta
p19
aVwholekernelcorn
p20
aVkidneybean
p21
aVlonggrainwhiteric
p22
aVcoldmilk
p23
aVteriyakisauc
p24
aVunsweetenedchocol
p25
aVpintobean
p26
aVsausag
p27
aVyeast
p28
aVshreddedchees
p29
aVamericanchees
p30
aVpineapplechunk
p31
aVtomatosauc
p32
aVparsleyleav
p33
aVsunflowerse
p34
aVwaterchestnut
p35
aVcuminpowd
p36
aVkalamataol
p37
aVsageleav
p38
aVyellowcornm
p39
aVorangemarmalad
p40
aVenglishcucumb
p41
aVprosciutto
p42
aVshreddedcoconut
p43
aVgarlicminc
p44
aVworcestershir
p45
aVorzo
p46
aVtumer
p47
aVcheddarchees
p48
aVmediumshrimp
p49
aValmond
p50
aVbacon
p51
aVcurrant
p52
aVcauliflowerfloret
p53
aVbayscallop
p54
aVbrusselssprout
p55
aVunbleachedallpurposeflour
p56
aVspaghetti
p57
aVitaliansaladdress
p58
aVsweetenedcondensedmilk
p59
aVsauerkraut
p60
aVtarragon
p61
aVunsweetenedapplesauc
p62
aVpurevanillaextract
p63
aVchilisauc
p64
aVdarkrum
p65
aVlettuceleav
p66
aVgreenol
p67
aVricottachees
p68
aVgarlicclov
p69
aVcaper
p70
aVlemonjuic
p71
aVasparagu
p72
aVherb
p73
aVwater
p74
aVpankobreadcrumb
p75
aVbisquick
p76
aVcookedchicken
p77
aVdrywhitewin
p78
aVnonstickcookingspray
p79
aVmozzarella
p80
aVlightbrownsugar
p81
aVdill
p82
aVvinegar
p83
aVlowsodiumsoysauc
p84
aVworchestershiresauc
p85
aVguacamol
p86
aVcookedric
p87
aVtartappl
p88
aVdriedthymeleav
p89
aVunbleachedflour
p90
aVcrackedblackpepp
p91
aVmussel
p92
aVhoisinsauc
p93
aVrotel
p94
aVbayleaf
p95
aVstewedtomato
p96
aVradish
p97
aVrussetpotato
p98
aVvodka
p99
aVbayleav
p100
aVdriedmarjoram
p101
aVbuttonmushroom
p102
aVcoarsesaltandpepp
p103
aVlime
p104
aVblueberri
p105
aVcucumb
p106
aVgarnish
p107
aVcinnamonstick
p108
aVvanilla
p109
aVdriedtarragon
p110
aValfredosauc
p111
aVturkeybreast
p112
aVorangepeel
p113
aVceleryse
p114
aVthymeleav
p115
aVlemonwedg
p116
aVsalad
p117
aVmeltedbutt
p118
aVbeefbouillon
p119
aVcranberri
p120
aVagavenectar
p121
aVchickendrumstick
p122
aVoldbayseason
p123
aVcarrot
p124
aVcan
p125
aVlowfatmilk
p126
aVpuremaplesyrup
p127
aVgreenbellpepp
p128
aVmashedpotato
p129
aVcornflak
p130
aVbrownsugar
p131
aVredbellpepp
p132
aVpackedbrownsugar
p133
aVhoney
p134
aVbeansprout
p135
aVcookedchickenbreast
p136
aVpestosauc
p137
aVorangerind
p138
aVdress
p139
aVranchdress
p140
aVlamb
p141
aVblackpepp
p142
aVcorntortilla
p143
aVrhubarb
p144
aVsalmonfilet
p145
aVtabascosauc
p146
aVricewinevinegar
p147
aVsharpcheddarchees
p148
aVpiecrust
p149
aVparmigianoreggiano
p150
aVrotini
p151
aVupto
p152
aVstewmeat
p153
aVgreenpea
p154
aVmincedgarl
p155
aVhamburgerbun
p156
aVmaplesyrup
p157
aVgoatchees
p158
aVgranulatedgarl
p159
aVdate
p160
aVsalsa
p161
aVwhiteflour
p162
aVpumpkinpiespic
p163
aVdrysherri
p164
aVicingsugar
p165
aVchickenbreasthalv
p166
aVheavywhippingcream
p167
aVitalianparsley
p168
aVcampbellscreamofmushroom
p169
aVseascallop
p170
aVapplecid
p171
aVeggsubstitut
p172
aVmango
p173
aVdarksoysauc
p174
aVredpotato
p175
aVegg
p176
aVdriedbasilleav
p177
aVyellowonion
p178
aVfettuccin
p179
aVcouscou
p180
aVwhippedtop
p181
aVitalianseason
p182
aVorang
p183
aVforthefil
p184
aVbeefbrisket
p185
aVchickpea
p186
aVdough
p187
aVgreenbean
p188
aVnewpotato
p189
aVwhitepepp
p190
aVredchilli
p191
aVbroccolifloweret
p192
aVminimarshmallow
p193
aVleanpork
p194
aVfinelyonion
p195
aVavocado
p196
aVdriedapricot
p197
aVbeefstewmeat
p198
aVwalnut
p199
aVsweetpaprika
p200
aVmustardse
p201
aVpenn
p202
aVpesto
p203
aVhalfandhalf
p204
aVcherrytomato
p205
aVbaguett
p206
aVdarkchocol
p207
aVgoldenraisin
p208
aVreducedsodiumchickenbroth
p209
aVevoo
p210
aVflour
p211
aVchickenbreast
p212
aVgarlicsalt
p213
aVhashbrown
p214
aVconfectionerssugar
p215
aVmolass
p216
aVmascarponechees
p217
aVketchup
p218
aVbread
p219
aVserranochil
p220
aVripetomato
p221
aVsaltpeppertotast
p222
aVporktenderloin
p223
aVmeat
p224
aVthyme
p225
aVmeatbal
p226
aVroteltomato
p227
aVgingerroot
p228
aVvegetablestock
p229
aVrosemari
p230
aVchuck
p231
aVcornsyrup
p232
aVlemonpeel
p233
aVrosemaryleav
p234
aVfennelse
p235
aVactivedryyeast
p236
aVparsleyflak
p237
aVfish
p238
aVcayennepepp
p239
aVporkloinchop
p240
aVlentil
p241
aVartichok
p242
aVsesamese
p243
aVseasaltandblackpepp
p244
aVgrahamcrackercrumb
p245
aVlemonextract
p246
aVbittersweetchocol
p247
aVwontonwrapp
p248
aVshreddedmozzarellachees
p249
aVporksausag
p250
aVlinguini
p251
aVtomatojuic
p252
aVlightcream
p253
aVchocolatechip
p254
aVangelhair
p255
aVbakingpotato
p256
aVromain
p257
aVnutmeg
p258
aVricottacheesepartskim
p259
aVgarammasala
p260
aVbonelesschickenbreast
p261
aVcremefraich
p262
aVoliveorvegetableoil
p263
aVcurrypowd
p264
aVsharpcheddar
p265
aVricewin
p266
aVgranulatedsugar
p267
aVcoolwhip
p268
aVcornstarch
p269
aVwholechicken
p270
aVpowderedsugar
p271
aVdijonstylemustard
p272
aVmarsalawin
p273
aVlonggrainric
p274
aVtabasco
p275
aVcourgett
p276
aVseasonedsalt
p277
aVripebanana
p278
aVraisin
p279
aVbutterscotchchip
p280
aVpepperoni
p281
aVartichokeheart
p282
aVrolledoat
p283
aVvegetablebroth
p284
aVapplecidervinegar
p285
aVbowtiepasta
p286
aVpreparedhorseradish
p287
aVboilingwat
p288
aVlasagnanoodl
p289
aVprawn
p290
aVpork
p291
aVclamjuic
p292
aVbutternutsquash
p293
aVhotwat
p294
aVromatomato
p295
aVmincedonion
p296
aVsaltpepp
p297
aVbuttersoften
p298
aVspinach
p299
aVcrumbledfetachees
p300
aVtop
p301
aVquickoat
p302
aVdriedparsleyflak
p303
aVsaltandblackpepp
p304
aVsliveredalmond
p305
aValmondextract
p306
aVseasonedbreadcrumb
p307
aVbanana
p308
aVtomato
p309
aV2milk
p310
aVoption
p311
aVshallot
p312
aVseason
p313
aVselfrisingflour
p314
aVorangejuiceconcentr
p315
aVsweetpotato
p316
aVdriedsag
p317
aVvanillabean
p318
aVflaxse
p319
aVcidervinegar
p320
aVcoarselyblackpepp
p321
aVsweetitaliansausag
p322
aVwholetomato
p323
aVgreekyogurt
p324
aVangelhairpasta
p325
aVvanillaextract
p326
aVsourcream
p327
aVkoshersalt
p328
aVhalfandhalfcream
p329
aVtacosauc
p330
aVlightsourcream
p331
aVbellpepp
p332
aVdryonionsoupmix
p333
aVbeefstock
p334
aVpinenut
p335
aVcoldwat
p336
aVcoconut
p337
aVromainelettuc
p338
aVchickenbreastsand
p339
aVginger
p340
aVpieshel
p341
aVbowtiepastafarfal
p342
aVsteak
p343
aVgreenchili
p344
aVdriedrosemari
p345
aVextravirginoliveoil
p346
aVporkloinroast
p347
aVmint
p348
aVunsweetenedcocoapowd
p349
aVunsaltedbutt
p350
aVclove
p351
aVcoconutmilk
p352
aVfettucin
p353
aVnonfatyogurt
p354
aVyukongoldpotato
p355
aVlowsodiumchickenbroth
p356
aVritzcrack
p357
aVapplejuic
p358
aVchees
p359
aVcondensedcreamofmushroomsoup
p360
aVbakingpowd
p361
aVzucchini
p362
aVsmokedsausag
p363
aVdillwe
p364
aVgruyerechees
p365
aVtoastedpinenut
p366
aVsalmon
p367
aVgrapetomato
p368
aVcoursesalt
p369
aVgravi
p370
aVwarmwat
p371
aVtahini
p372
aVpeppercorn
p373
aVpineapplejuic
p374
aVtacoseasoningmix
p375
aVhotcookedric
p376
aVoliveoil
p377
aVpeanutbutt
p378
aVblackbean
p379
aVcilantroleav
p380
aVwholemilk
p381
aVheavycream
p382
aVsalt
p383
aVdrybreadcrumb
p384
aVchickenbroth
p385
aVcinnamon
p386
aVcrust
p387
aVtequila
p388
aVhazelnut
p389
aVsage
p390
aVripeol
p391
aVfennel
p392
aVchicken
p393
aVdriedthym
p394
aVkale
p395
aVceleri
p396
aVporkloin
p397
aVwhippingcream
p398
aVcookingspray
p399
aVtomatopast
p400
aVfreshlygroundblackpepp
p401
aVsugar
p402
aVsweetcorn
p403
aVdoublecream
p404
aVbourbon
p405
aVrice
p406
aVwhitebean
p407
aVfishsauc
p408
aVpumpkin
p409
aVcardamom
p410
aVfatfreesourcream
p411
aVxanthangum
p412
aVbambooshoot
p413
aVpepperjackchees
p414
aVsesameoil
p415
aVsweetpicklerelish
p416
aVbatter
p417
aVspinachleav
p418
aVyellowcakemix
p419
aVspanishonion
p420
aVceleryrib
p421
aVredpepperflak
p422
aVpeppertotast
p423
aVdijonmustard
p424
aVonionpowd
p425
aVcrabmeat
p426
aVcumin
p427
aVmargarineorbutt
p428
aVsauc
p429
aVminiaturemarshmallow
p430
aVwhitecakemix
p431
aVcaramel
p432
aVmarinatedartichokeheart
p433
aVmarinad
p434
aVtortilla
p435
aVonionfin
p436
aVbeefbroth
p437
aVwhitechocol
p438
aVnoodl
p439
aVdriedbasil
p440
aVshiitakemushroom
p441
aVdrymustard
p442
aVnut
p443
aVunflavoredgelatin
p444
aVshreddedcheddarchees
p445
aVdriedparsley
p446
aVcauliflow
p447
aVevaporatedmilk
p448
aVyellowsquash
p449
aVlowfatyogurt
p450
aVwhitevinegar
p451
aVcornkernel
p452
aVglaze
p453
aVbarbecuesauc
p454
aVcreamofmushroomsoup
p455
aVyogurt
p456
aVcakeflour
p457
aVwhitesugar
p458
aVchickenpiec
p459
aVparmigianoreggianochees
p460
aVgruyer
p461
aVgarbanzobean
p462
aVseasoningsalt
p463
aVcorianderse
p464
aVcornflour
p465
aVpartskimmozzarellachees
p466
aVsweetonion
p467
aVarugula
p468
aVapricotpreserv
p469
aVcorianderleav
p470
aVlemonpepp
p471
aVrotisseriechicken
p472
aVricevinegar
p473
aVwhitebread
p474
aVskimmilk
p475
aVmincedparsley
p476
aVwhiteric
p477
aVmargarin
p478
aVwhippedcream
p479
aVeggplant
p480
aVlinguin
p481
aVwarmmilk
p482
aVelbowmacaroni
p483
aVgrahamcrack
p484
aVandouillesausag
p485
aVyellowmustard
p486
aVportobellomushroom
p487
aVpecanhalv
p488
aVmozzarellachees
p489
aVscallop
p490
aVinstantyeast
p491
aVgarlicpowd
p492
aVoregano
p493
aVmediumonion
p494
aVprovolonechees
p495
aVorangejuic
p496
aVreducedfatsourcream
p497
aVrefriedbean
p498
aVturkey
p499
aVcreamypeanutbutt
p500
aVbeef
p501
aVroundsteak
p502
aVsnowpea
p503
aVparsley
p504
aVvelveeta
p505
aVcannellinibean
p506
aVbeer
p507
aVbeet
p508
aVcreamstylecorn
p509
aVbasil
p510
aVfrenchbread
p511
aVchilipepp
p512
aVcookedpasta
p513
aVpumpkinse
p514
aVpanko
p515
aVsemolinaflour
p516
aVkoshersaltandblackpepp
p517
aVsaltinecrack
p518
aVmushroom
p519
aVsaltandpeppertotast
p520
aVmarjoram
p521
aVevaporatedskimmilk
p522
aVdriedmincedonion
p523
aVspaghettisquash
p524
aVeggnoodl
p525
aVeggwhit
p526
aVsmokedsalmon
p527
aVfetachees
p528
aVredpepp
p529
aVpastasauc
p530
aVingredi
p531
aVvirginoliveoil
p532
aVeggyolk
p533
aVyellowbellpepp
p534
aVorangezest
p535
aVsqueezedlemonjuic
p536
aVsaffronthread
p537
aVmixedveget
p538
aVflourallpurpos
p539
aVmincedging
p540
aVlightcreamchees
p541
aVvegetablecookingspray
p542
aVchilipowd
p543
aVbroth
p544
aVjalapenopepp
p545
aVredfoodcolor
p546
aVsoysauc
p547
aVicecub
p548
aVpastashel
p549
aVwheatgerm
p550
aVturmer
p551
aVscallion
p552
aVmontereyjackchees
p553
aVbabyspinach
p554
aVchickenstock
p555
aVsemisweetchocolatechip
p556
aVdillpickl
p557
aVshorten
p558
aVdriedoregano
p559
aVquickcookingoat
p560
aVpreparedmustard
p561
aVflanksteak
p562
aVinstantvanillapuddingmix
p563
aVmacaroni
p564
aVlightcornsyrup
p565
aVfill
p566
aVonionsoupmix
p567
aVcoconutoil
p568
aVworcestershiresauc
p569
aVclovegarl
p570
aVoil
p571
aVplumtomato
p572
aVsaltedbutt
p573
aVblackpeppercorn
p574
aVenchiladasauc
p575
aVlemonrind
p576
aVcoffe
p577
aVtortillachip
p578
aVmintleav
p579
aVfruit
p580
aVgarlic
p581
aVlemonzest
p582
aVpimento
p583
aVpackedlightbrownsugar
p584
aVtuna
p585
aVoilforfri
p586
aVbroccoli
p587
aVcrushedpineappl
p588
aVbutter
p589
aVdrain
p590
aVfirmtofu
p591
aVunsweetenedcocoa
p592
aVchickenw
p593
aVhardboiledegg
p594
aVsalmonfillet
p595
aVsoftbreadcrumb
p596
aVpepperblack
p597
aVitalianbreadcrumb
p598
aVanchovi
p599
aVcrushedredpepp
p600
aVsherri
p601
aVdryredwin
p602
aVlukewarmwat
p603
aVvidaliaonion
p604
aVgreenpepp
p605
aVbasilleav
p606
aVcheddar
p607
aVgreatnorthernbean
p608
aVredwin
p609
aVvelveetachees
p610
aVasparagusspear
p611
aVcornoil
p612
aVcreamoftartar
p613
aVbabycarrot
p614
aVcreamedcorn
p615
aVromanochees
p616
aVpimiento
p617
aVcilantro
p618
aVham
p619
aVoreganoleav
p620
aVcrushedredpepperflak
p621
aVlightsoysauc
p622
aVbbqsauc
p623
aVgrannysmithappl
p624
aVrotinipasta
p625
aVpeanutoil
p626
aVsmoothpeanutbutt
p627
aVhorseradish
p628
aVchocolatesyrup
p629
aVallpurposeflour
p630
aVrigatoni
p631
aVcanolaoil
p632
aVmayo
p633
aVpoppyse
p634
aVsplenda
p635
aVpiec
p636
aVbalsamicvinegar
p637
aVsundriedtomato
p638
aVvegetableshorten
p639
aVcookingoil
p640
aVgoldensyrup
p641
aVpumpkinpure
p642
aVclam
p643
aVblackberri
p644
aVonion
p645
aVicewat
p646
aVtilapiafillet
p647
aVgreenonion
p648
aVchickenthigh
p649
aVcelerystalk
p650
aVmirin
p651
aVpennepasta
p652
aVcookedturkey
p653
aVdarkbrownsugar
p654
aVmarinarasauc
p655
aVtomatillo
p656
aVwhiteonion
p657
aVricotta
p658
aVoliv
p659
aVmilkchocolatechip
p660
aVcoarsesalt
p661
aVdarksesameoil
p662
aVoreocooki
p663
aVcayenn
p664
aVdrieditalianseason
p665
aVlimezest
p666
aVchocol
p667
aVokra
p668
aVjalapeno
p669
aVtomatosoup
p670
aVice
p671
aVcelerysalt
p672
aVwhitewinevinegar
p673
aVcajunseason
p674
aVlard
p675
aVpea
p676
aVclovesgarl
p677
aVpepper
p678
aVcuminse
p679
aVrum
p680
aVcreminimushroom
p681
aVhotpeppersauc
p682
aVcorn
p683
aVraspberri
p684
aVredkidneybean
p685
aVtablesalt
p686
aViceberglettuc
p687
aVpasta
p688
aVbreadflour
p689
aVmaraschinocherri
p690
aVvanillaicecream
p691
aVbreadcrumb
p692
aVpuffpastri
p693
aVparmesanchees
p694
aVbluechees
p695
aVoatmeal
p696
aVshrimp
p697
aVlimejuic
p698
aVspringonion
p699
aVmandarinorang
p700
aVchive
p701
aVreducedsodiumsoysauc
p702
aVor
p703
aVcocoapowd
p704
aVallspic
p705
aVleanbeef
p706
aVcastersugar
p707
aVmarshmallow
p708
aVwholewheatflour
p709
aVwhitemushroom
p710
aVtofu
p711
aVcrushedtomato
p712
aVcocoa
p713
aVelbowmacaroninoodl
p714
aVlettuc
p715
aVliquidsmok
p716
aVhotdog
p717
aVredwinevinegar
p718
aVmustardpowd
p719
aVsweetredpepp
p720
aVselfraisingflour
p721
aVflatleafparsley
p722
aVcrushedgarl
p723
aVoystersauc
p724
aVbuttermilk
p725
aVasiagochees
p726
aVcottagechees
p727
aVparsnip
p728
aVpizzasauc
p729
aVappl
p730
aVsugarsnappea
p731
aVvanillawaf
p732
aVcatsup
p733
aVfrost
p734
aVriceflour
p735
aVyellowpepp
p736
aVsalttotast
p737
aVtacoseason
p738
aVbakingsoda
p739
aVanchovyfillet
p740
aVblackol
p741
aVstrawberri
p742
aVporkchop
p743
aVcoriand
p744
aVchickenbouillon
p745
aVcrescentrol
p746
aVveget
p747
aVchillipowd
p748
aVfatfreemilk
p749
aVcreamchees
p750
aVpaprika
p751
aVitaliansausag
p752
aVcornmeal
p753
aVcake
p754
aVturnip
p755
aVarborioric
p756
aVcondensedcreamofchickensoup
p757
aVsaltandpepp
p758
aVwinevinegar
p759
aVgreenchilli
p760
aVshreddedparmesanchees
p761
aVdryyeast
p762
aVforthesauc
p763
aVbrownric
p764
aVdriedoreganoleav
p765
aVchuckroast
p766
aVredchil
p767
aVlightmayonnais
p768
aVflourtortilla
p769
aVcream
p770
aVitaliantomato
p771
aVlemon
p772
aVhotsauc
p773
aVpeach
p774
aVcashew
p775
aVredcabbag
p776
aVsaffron
p777
aVoat
p778
aVdurumsemolina
p779
aVcookedham
p780
aVvegetableoil
p781
aVbutterormargarin
p782
aVlemongrass
p783
aVleek
p784
aVlumpcrabmeat
p785
aVtoastedsesameoil
p786
aVpineappl
p787
aVbrandi
p788
aVwhitewin
p789
aVmustard
p790
aVcreamofcelerysoup
p791
aVpear
p792
aVsquash
p793
aVquinoa
p794
aVpoultryseason
p795
aVbakingcocoa
p796
aVcreamofchickensoup
p797
aVjumbopastashel
p798
aVportabellamushroom
p799
aVonionsalt
p800
aVsemisweetchocol
p801
aVcreoleseason
p802
aVgreenchil
p803
aVpotato
p804
aVflakedcoconut
p805
aVitaliandress
p806
aVcabbag
p807
aVapplesauc
p808
aVsmokedpaprika
p809
aVswisschees
p810
aVpecan
p811
aVgreencabbag
p812
aVspiralpasta
p813
aVsaladoil
p814
atp815
Rp816
.